target datalayout = "e-m:e-p270:32:32-p271:32:32-p272:64:64-i64:64-i128:128-f80:128-n8:16:32:64-S128"
target triple = "x86_64-pc-linux-gnu"

; Function Attrs: nounwind uwtable
define hidden i64 @minAND(i64 noundef %0, i64 noundef %1, i64 noundef %2, i64 noundef %3) #0 {
  %5 = alloca i64, align 8
  %6 = alloca i64, align 8
  %7 = alloca i64, align 8
  %8 = alloca i64, align 8
  %9 = alloca i64, align 8
  %10 = alloca i64, align 8
  store i64 %0, ptr %5, align 8
  store i64 %1, ptr %6, align 8
  store i64 %2, ptr %7, align 8
  store i64 %3, ptr %8, align 8
  store i64 -9223372036854775808, ptr %9, align 8
  br label %11

11:                                               ; preds = %48, %4
  %12 = load i64, ptr %9, align 8
  %13 = icmp ne i64 %12, 0
  br i1 %13, label %14, label %51

14:                                               ; preds = %11
  %15 = load i64, ptr %5, align 8
  %16 = xor i64 %15, -1
  %17 = load i64, ptr %7, align 8
  %18 = xor i64 %17, -1
  %19 = and i64 %16, %18
  %20 = load i64, ptr %9, align 8
  %21 = and i64 %19, %20
  %22 = icmp ne i64 %21, 0
  br i1 %22, label %23, label %48

23:                                               ; preds = %14
  %24 = load i64, ptr %5, align 8
  %25 = load i64, ptr %9, align 8
  %26 = or i64 %24, %25
  %27 = load i64, ptr %9, align 8
  %28 = sub i64 0, %27
  %29 = and i64 %26, %28
  store i64 %29, ptr %10, align 8
  %30 = load i64, ptr %10, align 8
  %31 = load i64, ptr %6, align 8
  %32 = icmp ule i64 %30, %31
  br i1 %32, label %33, label %35

33:                                               ; preds = %23
  %34 = load i64, ptr %10, align 8
  store i64 %34, ptr %5, align 8
  br label %51

35:                                               ; preds = %23
  %36 = load i64, ptr %7, align 8
  %37 = load i64, ptr %9, align 8
  %38 = or i64 %36, %37
  %39 = load i64, ptr %9, align 8
  %40 = sub i64 0, %39
  %41 = and i64 %38, %40
  store i64 %41, ptr %10, align 8
  %42 = load i64, ptr %10, align 8
  %43 = load i64, ptr %8, align 8
  %44 = icmp ule i64 %42, %43
  br i1 %44, label %45, label %47

45:                                               ; preds = %35
  %46 = load i64, ptr %10, align 8
  store i64 %46, ptr %7, align 8
  br label %51

47:                                               ; preds = %35
  br label %48

48:                                               ; preds = %47, %14
  %49 = load i64, ptr %9, align 8
  %50 = lshr i64 %49, 1
  store i64 %50, ptr %9, align 8
  br label %11

51:                                               ; preds = %45, %33, %11
  %52 = load i64, ptr %5, align 8
  %53 = load i64, ptr %7, align 8
  %54 = and i64 %52, %53
  ret i64 %54
}

; Function Attrs: nounwind uwtable
define hidden i64 @minXOR(i64 noundef %0, i64 noundef %1, i64 noundef %2, i64 noundef %3) #0 {
  %5 = alloca i64, align 8
  %6 = alloca i64, align 8
  %7 = alloca i64, align 8
  %8 = alloca i64, align 8
  store i64 %0, ptr %5, align 8
  store i64 %1, ptr %6, align 8
  store i64 %2, ptr %7, align 8
  store i64 %3, ptr %8, align 8
  %9 = load i64, ptr %5, align 8
  %10 = load i64, ptr %6, align 8
  %11 = load i64, ptr %8, align 8
  %12 = xor i64 %11, -1
  %13 = load i64, ptr %7, align 8
  %14 = xor i64 %13, -1
  %15 = call i64 @minAND(i64 noundef %9, i64 noundef %10, i64 noundef %12, i64 noundef %14)
  %16 = load i64, ptr %6, align 8
  %17 = xor i64 %16, -1
  %18 = load i64, ptr %5, align 8
  %19 = xor i64 %18, -1
  %20 = load i64, ptr %7, align 8
  %21 = load i64, ptr %8, align 8
  %22 = call i64 @minAND(i64 noundef %17, i64 noundef %19, i64 noundef %20, i64 noundef %21)
  %23 = or i64 %15, %22
  ret i64 %23
}