; Function Attrs: nofree norecurse nosync nounwind memory(none) uwtable
define hidden i64 @minXOR(i64 noundef %0, i64 noundef %1, i64 noundef %2, i64 noundef %3) local_unnamed_addr #5 {
  %5 = xor i64 %3, -1
  %6 = xor i64 %2, -1
  %.not = xor i64 %0, -1
  %7 = and i64 %.not, %3
  br label %8

8:                                                ; preds = %17, %4
  %.026.i = phi i64 [ -9223372036854775808, %4 ], [ %18, %17 ]
  %9 = and i64 %7, %.026.i
  %.not23.i = icmp eq i64 %9, 0
  br i1 %.not23.i, label %17, label %10

10:                                               ; preds = %8
  %11 = or i64 %.026.i, %0
  %12 = sub i64 0, %.026.i
  %13 = and i64 %11, %12
  %.not24.i = icmp ugt i64 %13, %1
  br i1 %.not24.i, label %14, label %minAND.exit

14:                                               ; preds = %10
  %15 = or i64 %.026.i, %5
  %16 = and i64 %15, %12
  %.not25.i = icmp ugt i64 %16, %6
  br i1 %.not25.i, label %17, label %minAND.exit

17:                                               ; preds = %14, %8
  %18 = lshr i64 %.026.i, 1
  %.not.i = icmp ult i64 %.026.i, 2
  br i1 %.not.i, label %minAND.exit, label %8

minAND.exit:                                      ; preds = %10, %14, %17
  %.020.i = phi i64 [ %5, %17 ], [ %5, %10 ], [ %16, %14 ]
  %.019.i = phi i64 [ %0, %17 ], [ %13, %10 ], [ %0, %14 ]
  %19 = xor i64 %1, -1
  %20 = and i64 %6, %1
  br label %21

21:                                               ; preds = %30, %minAND.exit
  %.026.i9 = phi i64 [ -9223372036854775808, %minAND.exit ], [ %31, %30 ]
  %22 = and i64 %20, %.026.i9
  %.not23.i10 = icmp eq i64 %22, 0
  br i1 %.not23.i10, label %30, label %23

23:                                               ; preds = %21
  %24 = or i64 %.026.i9, %19
  %25 = sub i64 0, %.026.i9
  %26 = and i64 %24, %25
  %.not24.i11 = icmp ugt i64 %26, %.not
  br i1 %.not24.i11, label %27, label %minAND.exit16

27:                                               ; preds = %23
  %28 = or i64 %.026.i9, %2
  %29 = and i64 %28, %25
  %.not25.i14 = icmp ugt i64 %29, %3
  br i1 %.not25.i14, label %30, label %minAND.exit16

30:                                               ; preds = %27, %21
  %31 = lshr i64 %.026.i9, 1
  %.not.i15 = icmp ult i64 %.026.i9, 2
  br i1 %.not.i15, label %minAND.exit16, label %21

minAND.exit16:                                    ; preds = %23, %27, %30
  %.020.i12 = phi i64 [ %2, %30 ], [ %2, %23 ], [ %29, %27 ]
  %.019.i13 = phi i64 [ %19, %30 ], [ %26, %23 ], [ %19, %27 ]
  %32 = and i64 %.019.i, %.020.i
  %33 = and i64 %.019.i13, %.020.i12
  %34 = or i64 %33, %32
  ret i64 %34
}